target datalayout = "e-m:e-p270:32:32-p271:32:32-p272:64:64-i64:64-i128:128-f80:128-n8:16:32:64-S128"
target triple = "x86_64-pc-linux-gnu"

%"class.net::(anonymous namespace)::ScopedZLib" = type <{ ptr, i32, [4 x i8] }>

; Function Attrs: mustprogress uwtable
define internal void @_ZN3net12_GLOBAL__N_110ScopedZLib5ClearEv(ptr noundef nonnull align 8 dereferenceable(12) %0) #0 align 2 {
  %2 = alloca ptr, align 8
  store ptr %0, ptr %2, align 8, !tbaa !56
  %3 = load ptr, ptr %2, align 8
  %4 = getelementptr inbounds nuw %"class.net::(anonymous namespace)::ScopedZLib", ptr %3, i32 0, i32 0
  %5 = load ptr, ptr %4, align 8, !tbaa !59
  %6 = icmp ne ptr %5, null
  br i1 %6, label %8, label %7

7:                                                ; preds = %1
  br label %22

8:                                                ; preds = %1
  %9 = getelementptr inbounds nuw %"class.net::(anonymous namespace)::ScopedZLib", ptr %3, i32 0, i32 1
  %10 = load i32, ptr %9, align 8, !tbaa !62
  %11 = icmp eq i32 %10, 1
  br i1 %11, label %12, label %16

12:                                               ; preds = %8
  %13 = getelementptr inbounds nuw %"class.net::(anonymous namespace)::ScopedZLib", ptr %3, i32 0, i32 0
  %14 = load ptr, ptr %13, align 8, !tbaa !59
  %15 = call i32 @MOZ_Z_deflateEnd(ptr noundef %14)
  br label %20

16:                                               ; preds = %8
  %17 = getelementptr inbounds nuw %"class.net::(anonymous namespace)::ScopedZLib", ptr %3, i32 0, i32 0
  %18 = load ptr, ptr %17, align 8, !tbaa !59
  %19 = call i32 @MOZ_Z_inflateEnd(ptr noundef %18)
  br label %20

20:                                               ; preds = %16, %12
  %21 = getelementptr inbounds nuw %"class.net::(anonymous namespace)::ScopedZLib", ptr %3, i32 0, i32 0
  store ptr null, ptr %21, align 8, !tbaa !59
  br label %22

22:                                               ; preds = %20, %7
  ret void
}

; Function Attrs: mustprogress nounwind uwtable
define internal void @_ZN3net12_GLOBAL__N_110ScopedZLibD2Ev(ptr noundef nonnull align 8 dereferenceable(12) %0) unnamed_addr #3 align 2 personality ptr @__gxx_personality_v0 {
  %2 = alloca ptr, align 8
  store ptr %0, ptr %2, align 8, !tbaa !56
  %3 = load ptr, ptr %2, align 8
  invoke void @_ZN3net12_GLOBAL__N_110ScopedZLib5ClearEv(ptr noundef nonnull align 8 dereferenceable(12) %3)
          to label %4 unwind label %5

4:                                                ; preds = %1
  ret void

5:                                                ; preds = %1
  %6 = landingpad { ptr, i32 }
          catch ptr null
  %7 = extractvalue { ptr, i32 } %6, 0
  call void @__clang_call_terminate(ptr %7) #17
  unreachable
}