; Function Attrs: mustprogress nounwind uwtable
define internal fastcc void @_ZN3net12_GLOBAL__N_110ScopedZLibD2Ev(ptr noundef nonnull align 8 captures(none) dereferenceable(12) %0) unnamed_addr #5 align 2 personality ptr @__gxx_personality_v0 {
  %2 = load ptr, ptr %0, align 8, !tbaa !33
  %.not.i = icmp eq ptr %2, null
  br i1 %.not.i, label %_ZN3net12_GLOBAL__N_110ScopedZLib5ClearEv.exit, label %3

3:                                                ; preds = %1
  %4 = getelementptr inbounds nuw i8, ptr %0, i64 8
  %5 = load i32, ptr %4, align 8, !tbaa !36
  %6 = icmp eq i32 %5, 1
  br i1 %6, label %7, label %9

7:                                                ; preds = %3
  %8 = invoke i32 @MOZ_Z_deflateEnd(ptr noundef nonnull %2)
          to label %.noexc unwind label %11

9:                                                ; preds = %3
  %10 = invoke i32 @MOZ_Z_inflateEnd(ptr noundef nonnull %2)
          to label %.noexc unwind label %11

.noexc:                                           ; preds = %9, %7
  store ptr null, ptr %0, align 8, !tbaa !33
  br label %_ZN3net12_GLOBAL__N_110ScopedZLib5ClearEv.exit

_ZN3net12_GLOBAL__N_110ScopedZLib5ClearEv.exit:   ; preds = %.noexc, %1
  ret void

11:                                               ; preds = %9, %7
  %12 = landingpad { ptr, i32 }
          catch ptr null
  %13 = extractvalue { ptr, i32 } %12, 0
  tail call void @__clang_call_terminate(ptr %13) #18
  unreachable
}